; Function Attrs: mustprogress nofree nounwind willreturn memory(write, inaccessiblemem: readwrite) uwtable
define noundef range(i32 -1, 1) i32 @_ZN3zmq5msg_t9init_sizeEm(ptr noundef nonnull writeonly align 8 captures(none) dereferenceable(64) initializes((0, 8), (42, 50)) %0, i64 noundef %1) local_unnamed_addr #2 align 2 {
  %3 = icmp ult i64 %1, 34
  store ptr null, ptr %0, align 8, !tbaa !3
  %4 = getelementptr inbounds nuw i8, ptr %0, i64 42
  %5 = getelementptr inbounds nuw i8, ptr %0, i64 43
  br i1 %3, label %6, label %12

6:                                                ; preds = %2
  store i8 101, ptr %4, align 2, !tbaa !3
  store i8 0, ptr %5, align 1, !tbaa !3
  %7 = trunc nuw nsw i64 %1 to i8
  %8 = getelementptr inbounds nuw i8, ptr %0, i64 41
  store i8 %7, ptr %8, align 1, !tbaa !3
  %9 = getelementptr inbounds nuw i8, ptr %0, i64 48
  %10 = getelementptr inbounds nuw i8, ptr %0, i64 49
  store i8 0, ptr %10, align 1, !tbaa !3
  store i8 0, ptr %9, align 8, !tbaa !3
  %11 = getelementptr inbounds nuw i8, ptr %0, i64 44
  store i32 0, ptr %11, align 4, !tbaa !3
  br label %23

12:                                               ; preds = %2
  store i8 102, ptr %4, align 2, !tbaa !3
  %13 = getelementptr inbounds nuw i8, ptr %0, i64 8
  store ptr null, ptr %13, align 8, !tbaa !3
  %14 = icmp ult i64 %1, -40
  tail call void @llvm.memset.p0.i64(ptr noundef nonnull align 1 dereferenceable(7) %5, i8 0, i64 7, i1 false)
  br i1 %14, label %15, label %.thread

15:                                               ; preds = %12
  %16 = add nuw i64 %1, 40
  %17 = tail call noalias ptr @malloc(i64 noundef %16) #21
  store ptr %17, ptr %13, align 8, !tbaa !3
  %.not = icmp eq ptr %17, null
  br i1 %.not, label %.thread, label %19, !prof !21

.thread:                                          ; preds = %12, %15
  %18 = tail call ptr @__errno_location() #22
  store i32 12, ptr %18, align 4, !tbaa !22
  br label %23

19:                                               ; preds = %15
  %20 = getelementptr inbounds nuw i8, ptr %17, i64 40
  store ptr %20, ptr %17, align 8, !tbaa !10
  %21 = getelementptr inbounds nuw i8, ptr %17, i64 8
  store i64 %1, ptr %21, align 8, !tbaa !17
  %22 = getelementptr inbounds nuw i8, ptr %17, i64 16
  tail call void @llvm.memset.p0.i64(ptr noundef nonnull align 8 dereferenceable(20) %22, i8 0, i64 20, i1 false)
  br label %23

23:                                               ; preds = %6, %19, %.thread
  %.0 = phi i32 [ -1, %.thread ], [ 0, %19 ], [ 0, %6 ]
  ret i32 %.0
}